target datalayout = "e-m:e-p270:32:32-p271:32:32-p272:64:64-i64:64-i128:128-f80:128-n8:16:32:64-S128"
target triple = "x86_64-pc-linux-gnu"

%struct.GCRef = type { i64 }
%struct.GCstr = type { %struct.GCRef, i8, i8, i8, i8, i32, i32, i32 }
%struct.jit_State = type { %struct.GCtrace, ptr, ptr, ptr, ptr, ptr, ptr, i32, i32, i32, i8, i8, %struct.IRType1, i8, %struct.FoldState, ptr, i32, i32, i32, i32, i32, i32, i32, [1 x i32], [5 x %union.TValue], [3 x %union.TValue], ptr, i32, i32, i32, i32, ptr, ptr, i32, i32, i8, ptr, i32, i32, i16, [101 x i16], [258 x i32], [15 x i32], [16 x ptr], [64 x %struct.HotPenalty], i32, [16 x %struct.BPropEntry], i32, %struct.ScEvEntry, ptr, i32, i32, i32, ptr, i32, i32, ptr, ptr, ptr, i64, i64, %union.TValue, ptr, i32, i32 }
%struct.GCtrace = type { %struct.GCRef, i8, i8, i16, i32, i32, %struct.GCRef, ptr, i32, i32, ptr, ptr, %struct.GCRef, %struct.MRef, i32, i32, ptr, i32, i16, i16, i16, i16, i16, i16, i16, i8, i8, i8, i8 }
%struct.MRef = type { i64 }
%struct.IRType1 = type { i8 }
%struct.FoldState = type { %union.IRIns, [2 x %union.IRIns], [2 x %union.IRIns] }
%union.IRIns = type { %struct.GCRef }
%struct.HotPenalty = type { %struct.MRef, i16, i16 }
%struct.BPropEntry = type { i16, i16, i32 }
%struct.ScEvEntry = type { %struct.MRef, i16, i16, i16, i16, %struct.IRType1, i8 }
%union.TValue = type { i64 }
%struct.anon.2 = type { i16, i16, i16, i16 }
%struct.RecordFFData = type { ptr, i64, i32 }
%struct.lua_State = type { %struct.GCRef, i8, i8, i8, i8, %struct.MRef, %struct.GCRef, ptr, ptr, %struct.MRef, %struct.MRef, %struct.GCRef, %struct.GCRef, ptr, i32 }
%struct.GG_State = type { %struct.lua_State, %struct.global_State, %struct.jit_State, [64 x i16], [243 x ptr], [57 x i32] }
%struct.global_State = type { ptr, ptr, %struct.GCState, %struct.GCstr, i8, i8, i8, i8, %struct.StrInternState, i32, %struct.GCRef, %struct.SBuf, %union.TValue, %union.TValue, %struct.Node, %union.TValue, %struct.GCupval, i32, i32, ptr, ptr, ptr, i32, i32, %struct.GCRef, %struct.MRef, %struct.MRef, %struct.PRNGState, [39 x %struct.GCRef] }
%struct.GCState = type { i64, i64, i8, i8, i8, i8, i32, %struct.GCRef, %struct.MRef, %struct.GCRef, %struct.GCRef, %struct.GCRef, %struct.GCRef, i64, i64, i32, i32, %struct.MRef }
%struct.StrInternState = type { ptr, i32, i32, i32, i8, i8, i8, i8, i64 }
%struct.SBuf = type { ptr, ptr, ptr, %struct.MRef }
%struct.Node = type { %union.TValue, %union.TValue, %struct.MRef }
%struct.GCupval = type { %struct.GCRef, i8, i8, i8, i8, %union.anon, %struct.MRef, i32 }
%union.anon = type { %struct.anon.1 }
%struct.anon.1 = type { %struct.GCRef, %struct.GCRef }
%struct.PRNGState = type { [4 x i64] }

; Function Attrs: alwaysinline nounwind uwtable
define internal i32 @lj_strscan_numberobj(ptr noundef %0) #1 {
  %2 = alloca ptr, align 8
  store ptr %0, ptr %2, align 8, !tbaa !11
  %3 = load ptr, ptr %2, align 8, !tbaa !11
  %4 = load i64, ptr %3, align 8, !tbaa !13
  %5 = ashr i64 %4, 47
  %6 = trunc i64 %5 to i32
  %7 = icmp ule i32 %6, -14
  br i1 %7, label %25, label %8

8:                                                ; preds = %1
  %9 = load ptr, ptr %2, align 8, !tbaa !11
  %10 = load i64, ptr %9, align 8, !tbaa !13
  %11 = ashr i64 %10, 47
  %12 = trunc i64 %11 to i32
  %13 = icmp eq i32 %12, -5
  br i1 %13, label %14, label %23

14:                                               ; preds = %8
  %15 = load ptr, ptr %2, align 8, !tbaa !11
  %16 = getelementptr inbounds nuw %struct.GCRef, ptr %15, i32 0, i32 0
  %17 = load i64, ptr %16, align 8, !tbaa !13
  %18 = and i64 %17, 140737488355327
  %19 = inttoptr i64 %18 to ptr
  %20 = load ptr, ptr %2, align 8, !tbaa !11
  %21 = call i32 @lj_strscan_num(ptr noundef %19, ptr noundef %20)
  %22 = icmp ne i32 %21, 0
  br label %23

23:                                               ; preds = %14, %8
  %24 = phi i1 [ false, %8 ], [ %22, %14 ]
  br label %25

25:                                               ; preds = %23, %1
  %26 = phi i1 [ true, %1 ], [ %24, %23 ]
  %27 = zext i1 %26 to i32
  ret i32 %27
}

; Function Attrs: nounwind uwtable
define internal i32 @recff_bufhdr(ptr noundef %0) #0 {
  %2 = alloca ptr, align 8
  store ptr %0, ptr %2, align 8, !tbaa !4
  %3 = load ptr, ptr %2, align 8, !tbaa !4
  %4 = load ptr, ptr %2, align 8, !tbaa !4
  %5 = load ptr, ptr %2, align 8, !tbaa !4
  %6 = getelementptr inbounds i8, ptr %5, i64 -832
  %7 = getelementptr inbounds nuw %struct.GG_State, ptr %6, i32 0, i32 1
  %8 = getelementptr inbounds nuw %struct.global_State, ptr %7, i32 0, i32 11
  %9 = call i32 @lj_ir_kptr_(ptr noundef %4, i32 noundef 25, ptr noundef %8)
  %10 = trunc i32 %9 to i16
  call void @lj_ir_set_(ptr noundef %3, i16 noundef zeroext 21769, i16 noundef zeroext %10, i16 noundef zeroext 0)
  %11 = load ptr, ptr %2, align 8, !tbaa !4
  %12 = call i32 @lj_opt_fold(ptr noundef %11)
  ret i32 %12
}

; Function Attrs: alwaysinline nounwind uwtable
define internal void @lj_ir_set_(ptr noundef %0, i16 noundef zeroext %1, i16 noundef zeroext %2, i16 noundef zeroext %3) #1 {
  %5 = alloca ptr, align 8
  %6 = alloca i16, align 2
  %7 = alloca i16, align 2
  %8 = alloca i16, align 2
  store ptr %0, ptr %5, align 8, !tbaa !4
  store i16 %1, ptr %6, align 2, !tbaa !14
  store i16 %2, ptr %7, align 2, !tbaa !14
  store i16 %3, ptr %8, align 2, !tbaa !14
  %9 = load i16, ptr %6, align 2, !tbaa !14
  %10 = load ptr, ptr %5, align 8, !tbaa !4
  %11 = getelementptr inbounds nuw %struct.jit_State, ptr %10, i32 0, i32 14
  %12 = getelementptr inbounds nuw %struct.FoldState, ptr %11, i32 0, i32 0
  %13 = getelementptr inbounds nuw %struct.anon.2, ptr %12, i32 0, i32 2
  store i16 %9, ptr %13, align 4, !tbaa !13
  %14 = load i16, ptr %7, align 2, !tbaa !14
  %15 = load ptr, ptr %5, align 8, !tbaa !4
  %16 = getelementptr inbounds nuw %struct.jit_State, ptr %15, i32 0, i32 14
  %17 = getelementptr inbounds nuw %struct.FoldState, ptr %16, i32 0, i32 0
  %18 = getelementptr inbounds nuw %struct.anon.2, ptr %17, i32 0, i32 0
  store i16 %14, ptr %18, align 8, !tbaa !13
  %19 = load i16, ptr %8, align 2, !tbaa !14
  %20 = load ptr, ptr %5, align 8, !tbaa !4
  %21 = getelementptr inbounds nuw %struct.jit_State, ptr %20, i32 0, i32 14
  %22 = getelementptr inbounds nuw %struct.FoldState, ptr %21, i32 0, i32 0
  %23 = getelementptr inbounds nuw %struct.anon.2, ptr %22, i32 0, i32 1
  store i16 %19, ptr %23, align 2, !tbaa !13
  ret void
}

; Function Attrs: nounwind uwtable
define internal i32 @argv2int(ptr noundef %0, ptr noundef %1) #0 {
  %3 = alloca ptr, align 8
  %4 = alloca ptr, align 8
  store ptr %0, ptr %3, align 8, !tbaa !4
  store ptr %1, ptr %4, align 8, !tbaa !11
  %5 = load ptr, ptr %4, align 8, !tbaa !11
  %6 = call i32 @lj_strscan_numberobj(ptr noundef %5)
  %7 = icmp ne i32 %6, 0
  br i1 %7, label %10, label %8

8:                                                ; preds = %2
  %9 = load ptr, ptr %3, align 8, !tbaa !4
  call void @lj_trace_err(ptr noundef %9, i32 noundef 11) #10
  unreachable

10:                                               ; preds = %2
  %11 = load ptr, ptr %4, align 8, !tbaa !11
  %12 = load double, ptr %11, align 8, !tbaa !13
  %13 = fptosi double %12 to i32
  ret i32 %13
}

; Function Attrs: nounwind uwtable
define internal void @recff_string_rep(ptr noundef %0, ptr noundef %1) #0 {
  %3 = alloca ptr, align 8
  %4 = alloca ptr, align 8
  %5 = alloca i32, align 4
  %6 = alloca i32, align 4
  %7 = alloca i32, align 4
  %8 = alloca i32, align 4
  %9 = alloca i32, align 4
  %10 = alloca i32, align 4
  %11 = alloca i32, align 4
  %12 = alloca i32, align 4
  %13 = alloca i32, align 4
  store ptr %0, ptr %3, align 8, !tbaa !4
  store ptr %1, ptr %4, align 8, !tbaa !46
  call void @llvm.lifetime.start.p0(i64 4, ptr %5) #9
  %14 = load ptr, ptr %3, align 8, !tbaa !4
  %15 = load ptr, ptr %3, align 8, !tbaa !4
  %16 = getelementptr inbounds nuw %struct.jit_State, ptr %15, i32 0, i32 6
  %17 = load ptr, ptr %16, align 8, !tbaa !41
  %18 = getelementptr inbounds i32, ptr %17, i64 0
  %19 = load i32, ptr %18, align 4, !tbaa !9
  %20 = call i32 @lj_ir_tostr(ptr noundef %14, i32 noundef %19)
  store i32 %20, ptr %5, align 4, !tbaa !9
  call void @llvm.lifetime.start.p0(i64 4, ptr %6) #9
  %21 = load ptr, ptr %3, align 8, !tbaa !4
  %22 = load ptr, ptr %3, align 8, !tbaa !4
  %23 = getelementptr inbounds nuw %struct.jit_State, ptr %22, i32 0, i32 6
  %24 = load ptr, ptr %23, align 8, !tbaa !41
  %25 = getelementptr inbounds i32, ptr %24, i64 1
  %26 = load i32, ptr %25, align 4, !tbaa !9
  %27 = call i32 @lj_opt_narrow_toint(ptr noundef %21, i32 noundef %26)
  store i32 %27, ptr %6, align 4, !tbaa !9
  call void @llvm.lifetime.start.p0(i64 4, ptr %7) #9
  call void @llvm.lifetime.start.p0(i64 4, ptr %8) #9
  call void @llvm.lifetime.start.p0(i64 4, ptr %9) #9
  store i32 0, ptr %9, align 4, !tbaa !9
  %28 = load ptr, ptr %3, align 8, !tbaa !4
  %29 = getelementptr inbounds nuw %struct.jit_State, ptr %28, i32 0, i32 6
  %30 = load ptr, ptr %29, align 8, !tbaa !41
  %31 = getelementptr inbounds i32, ptr %30, i64 2
  %32 = load i32, ptr %31, align 4, !tbaa !9
  %33 = and i32 %32, 520093696
  %34 = icmp eq i32 %33, 0
  br i1 %34, label %90, label %35

35:                                               ; preds = %2
  call void @llvm.lifetime.start.p0(i64 4, ptr %10) #9
  %36 = load ptr, ptr %3, align 8, !tbaa !4
  %37 = load ptr, ptr %3, align 8, !tbaa !4
  %38 = getelementptr inbounds nuw %struct.jit_State, ptr %37, i32 0, i32 6
  %39 = load ptr, ptr %38, align 8, !tbaa !41
  %40 = getelementptr inbounds i32, ptr %39, i64 2
  %41 = load i32, ptr %40, align 4, !tbaa !9
  %42 = call i32 @lj_ir_tostr(ptr noundef %36, i32 noundef %41)
  store i32 %42, ptr %10, align 4, !tbaa !9
  call void @llvm.lifetime.start.p0(i64 4, ptr %11) #9
  %43 = load ptr, ptr %3, align 8, !tbaa !4
  %44 = load ptr, ptr %4, align 8, !tbaa !46
  %45 = getelementptr inbounds nuw %struct.RecordFFData, ptr %44, i32 0, i32 0
  %46 = load ptr, ptr %45, align 8, !tbaa !40
  %47 = getelementptr inbounds %union.TValue, ptr %46, i64 1
  %48 = call i32 @argv2int(ptr noundef %43, ptr noundef %47)
  store i32 %48, ptr %11, align 4, !tbaa !9
  %49 = load ptr, ptr %3, align 8, !tbaa !4
  %50 = load i32, ptr %11, align 4, !tbaa !9
  %51 = icmp sgt i32 %50, 1
  %52 = select i1 %51, i32 3, i32 2
  %53 = shl i32 %52, 8
  %54 = or i32 %53, 147
  %55 = trunc i32 %54 to i16
  %56 = load i32, ptr %6, align 4, !tbaa !9
  %57 = trunc i32 %56 to i16
  %58 = load ptr, ptr %3, align 8, !tbaa !4
  %59 = call i32 @lj_ir_kint(ptr noundef %58, i32 noundef 1)
  %60 = trunc i32 %59 to i16
  call void @lj_ir_set_(ptr noundef %49, i16 noundef zeroext %55, i16 noundef zeroext %57, i16 noundef zeroext %60)
  %61 = load ptr, ptr %3, align 8, !tbaa !4
  %62 = call i32 @lj_opt_fold(ptr noundef %61)
  %63 = load i32, ptr %11, align 4, !tbaa !9
  %64 = icmp sgt i32 %63, 1
  br i1 %64, label %65, label %89

65:                                               ; preds = %35
  call void @llvm.lifetime.start.p0(i64 4, ptr %12) #9
  %66 = load ptr, ptr %3, align 8, !tbaa !4
  %67 = call i32 @recff_bufhdr(ptr noundef %66)
  store i32 %67, ptr %12, align 4, !tbaa !9
  call void @llvm.lifetime.start.p0(i64 4, ptr %13) #9
  %68 = load ptr, ptr %3, align 8, !tbaa !4
  %69 = load i32, ptr %12, align 4, !tbaa !9
  %70 = trunc i32 %69 to i16
  %71 = load i32, ptr %10, align 4, !tbaa !9
  %72 = trunc i32 %71 to i16
  call void @lj_ir_set_(ptr noundef %68, i16 noundef zeroext 22153, i16 noundef zeroext %70, i16 noundef zeroext %72)
  %73 = load ptr, ptr %3, align 8, !tbaa !4
  %74 = call i32 @lj_opt_fold(ptr noundef %73)
  store i32 %74, ptr %13, align 4, !tbaa !9
  %75 = load ptr, ptr %3, align 8, !tbaa !4
  %76 = load i32, ptr %13, align 4, !tbaa !9
  %77 = trunc i32 %76 to i16
  %78 = load i32, ptr %5, align 4, !tbaa !9
  %79 = trunc i32 %78 to i16
  call void @lj_ir_set_(ptr noundef %75, i16 noundef zeroext 22153, i16 noundef zeroext %77, i16 noundef zeroext %79)
  %80 = load ptr, ptr %3, align 8, !tbaa !4
  %81 = call i32 @lj_opt_fold(ptr noundef %80)
  store i32 %81, ptr %13, align 4, !tbaa !9
  %82 = load ptr, ptr %3, align 8, !tbaa !4
  %83 = load i32, ptr %13, align 4, !tbaa !9
  %84 = trunc i32 %83 to i16
  %85 = load i32, ptr %12, align 4, !tbaa !9
  %86 = trunc i32 %85 to i16
  call void @lj_ir_set_(ptr noundef %82, i16 noundef zeroext 22404, i16 noundef zeroext %84, i16 noundef zeroext %86)
  %87 = load ptr, ptr %3, align 8, !tbaa !4
  %88 = call i32 @lj_opt_fold(ptr noundef %87)
  store i32 %88, ptr %9, align 4, !tbaa !9
  call void @llvm.lifetime.end.p0(i64 4, ptr %13) #9
  call void @llvm.lifetime.end.p0(i64 4, ptr %12) #9
  br label %89

89:                                               ; preds = %65, %35
  call void @llvm.lifetime.end.p0(i64 4, ptr %11) #9
  call void @llvm.lifetime.end.p0(i64 4, ptr %10) #9
  br label %90

90:                                               ; preds = %89, %2
  %91 = load ptr, ptr %3, align 8, !tbaa !4
  %92 = call i32 @recff_bufhdr(ptr noundef %91)
  store i32 %92, ptr %7, align 4, !tbaa !9
  store i32 %92, ptr %8, align 4, !tbaa !9
  %93 = load i32, ptr %9, align 4, !tbaa !9
  %94 = icmp ne i32 %93, 0
  br i1 %94, label %95, label %112

95:                                               ; preds = %90
  %96 = load ptr, ptr %3, align 8, !tbaa !4
  %97 = load i32, ptr %8, align 4, !tbaa !9
  %98 = trunc i32 %97 to i16
  %99 = load i32, ptr %5, align 4, !tbaa !9
  %100 = trunc i32 %99 to i16
  call void @lj_ir_set_(ptr noundef %96, i16 noundef zeroext 22153, i16 noundef zeroext %98, i16 noundef zeroext %100)
  %101 = load ptr, ptr %3, align 8, !tbaa !4
  %102 = call i32 @lj_opt_fold(ptr noundef %101)
  store i32 %102, ptr %8, align 4, !tbaa !9
  %103 = load i32, ptr %9, align 4, !tbaa !9
  store i32 %103, ptr %5, align 4, !tbaa !9
  %104 = load ptr, ptr %3, align 8, !tbaa !4
  %105 = load i32, ptr %6, align 4, !tbaa !9
  %106 = trunc i32 %105 to i16
  %107 = load ptr, ptr %3, align 8, !tbaa !4
  %108 = call i32 @lj_ir_kint(ptr noundef %107, i32 noundef -1)
  %109 = trunc i32 %108 to i16
  call void @lj_ir_set_(ptr noundef %104, i16 noundef zeroext 10515, i16 noundef zeroext %106, i16 noundef zeroext %109)
  %110 = load ptr, ptr %3, align 8, !tbaa !4
  %111 = call i32 @lj_opt_fold(ptr noundef %110)
  store i32 %111, ptr %6, align 4, !tbaa !9
  br label %112

112:                                              ; preds = %95, %90
  %113 = load ptr, ptr %3, align 8, !tbaa !4
  %114 = load i32, ptr %8, align 4, !tbaa !9
  %115 = load i32, ptr %5, align 4, !tbaa !9
  %116 = load i32, ptr %6, align 4, !tbaa !9
  %117 = call i32 (ptr, i32, ...) @lj_ir_call(ptr noundef %113, i32 noundef 22, i32 noundef %114, i32 noundef %115, i32 noundef %116)
  store i32 %117, ptr %8, align 4, !tbaa !9
  %118 = load ptr, ptr %3, align 8, !tbaa !4
  %119 = load i32, ptr %8, align 4, !tbaa !9
  %120 = trunc i32 %119 to i16
  %121 = load i32, ptr %7, align 4, !tbaa !9
  %122 = trunc i32 %121 to i16
  call void @lj_ir_set_(ptr noundef %118, i16 noundef zeroext 22404, i16 noundef zeroext %120, i16 noundef zeroext %122)
  %123 = load ptr, ptr %3, align 8, !tbaa !4
  %124 = call i32 @lj_opt_fold(ptr noundef %123)
  %125 = load ptr, ptr %3, align 8, !tbaa !4
  %126 = getelementptr inbounds nuw %struct.jit_State, ptr %125, i32 0, i32 6
  %127 = load ptr, ptr %126, align 8, !tbaa !41
  %128 = getelementptr inbounds i32, ptr %127, i64 0
  store i32 %124, ptr %128, align 4, !tbaa !9
  call void @llvm.lifetime.end.p0(i64 4, ptr %9) #9
  call void @llvm.lifetime.end.p0(i64 4, ptr %8) #9
  call void @llvm.lifetime.end.p0(i64 4, ptr %7) #9
  call void @llvm.lifetime.end.p0(i64 4, ptr %6) #9
  call void @llvm.lifetime.end.p0(i64 4, ptr %5) #9
  ret void
}